; Function Attrs: mustprogress uwtable
define dso_local noundef range(i32 -1, 1) i32 @_ZN9DepthSpec20depth_guard_by_depthEi(i32 noundef %0) local_unnamed_addr #4 align 2 {
  %2 = tail call noundef zeroext i1 @_ZN9CGOptions14dfs_exhaustiveEv()
  br i1 %2, label %3, label %8

3:                                                ; preds = %1
  %4 = tail call noundef ptr @_ZN12RandomNumber18GetRndNumGeneratorEv()
  %5 = icmp ne ptr %4, null
  tail call void @llvm.assume(i1 %5)
  %6 = tail call ptr @__dynamic_cast(ptr nonnull %4, ptr nonnull @_ZTI18AbsRndNumGenerator, ptr nonnull @_ZTI18DFSRndNumGenerator, i64 0) #14
  %7 = tail call noundef zeroext i1 @_ZN18DFSRndNumGenerator18eager_backtrackingEi(ptr noundef nonnull align 8 dereferenceable(96) %6, i32 noundef %0)
  %.0.i = sext i1 %7 to i32
  br label %8

8:                                                ; preds = %1, %3
  %.0 = phi i32 [ %.0.i, %3 ], [ 0, %1 ]
  ret i32 %.0
}